target datalayout = "e-m:e-p270:32:32-p271:32:32-p272:64:64-i64:64-i128:128-f80:128-n8:16:32:64-S128"
target triple = "x86_64-pc-linux-gnu"

%struct.SDL_AudioDriver = type { ptr, ptr, %struct.SDL_AudioDriverImpl, ptr, ptr, ptr, i32, i32, %struct.SDL_PendingAudioDeviceEvent, ptr, %struct.SDL_AtomicInt, %struct.SDL_AtomicInt, %struct.SDL_AtomicInt }
%struct.SDL_AudioDriverImpl = type { ptr, ptr, ptr, ptr, ptr, ptr, ptr, ptr, ptr, ptr, ptr, ptr, ptr, ptr, i8, i8, i8, i8 }
%struct.SDL_PendingAudioDeviceEvent = type { i32, i32, ptr }
%struct.SDL_AtomicInt = type { i32 }
%struct.SDL_AudioSpec = type { i32, i32, i32 }
%struct.SDL_AudioDevice = type { ptr, ptr, %struct.SDL_AtomicInt, ptr, ptr, ptr, ptr, ptr, ptr, ptr, i32, ptr, %struct.SDL_AudioSpec, i32, ptr, %struct.SDL_AudioSpec, i32, i32, %struct.SDL_AtomicInt, %struct.SDL_AtomicInt, i8, i8, ptr, ptr, ptr, i32, ptr, i8, ptr, ptr }

@current_audio = internal global %struct.SDL_AudioDriver zeroinitializer, align 8

; Function Attrs: nounwind uwtable
define internal ptr @CreateAudioPlaybackDevice(ptr noundef %0, ptr noundef %1, ptr noundef %2) #0 {
  %4 = alloca ptr, align 8
  %5 = alloca ptr, align 8
  %6 = alloca ptr, align 8
  store ptr %0, ptr %4, align 8
  store ptr %1, ptr %5, align 8
  store ptr %2, ptr %6, align 8
  %7 = load ptr, ptr %4, align 8
  %8 = load ptr, ptr %5, align 8
  %9 = load ptr, ptr %6, align 8
  %10 = call ptr @CreatePhysicalAudioDevice(ptr noundef %7, i1 noundef zeroext false, ptr noundef %8, ptr noundef %9, ptr noundef getelementptr inbounds nuw (%struct.SDL_AudioDriver, ptr @current_audio, i32 0, i32 10))
  ret ptr %10
}

; Function Attrs: nounwind uwtable
define internal ptr @CreateAudioRecordingDevice(ptr noundef %0, ptr noundef %1, ptr noundef %2) #0 {
  %4 = alloca ptr, align 8
  %5 = alloca ptr, align 8
  %6 = alloca ptr, align 8
  store ptr %0, ptr %4, align 8
  store ptr %1, ptr %5, align 8
  store ptr %2, ptr %6, align 8
  br label %7

7:                                                ; preds = %3
  br label %8

8:                                                ; preds = %7
  %9 = load ptr, ptr %4, align 8
  %10 = load ptr, ptr %5, align 8
  %11 = load ptr, ptr %6, align 8
  %12 = call ptr @CreatePhysicalAudioDevice(ptr noundef %9, i1 noundef zeroext true, ptr noundef %10, ptr noundef %11, ptr noundef getelementptr inbounds nuw (%struct.SDL_AudioDriver, ptr @current_audio, i32 0, i32 11))
  ret ptr %12
}

; Function Attrs: nounwind uwtable
define hidden ptr @SDL_AddAudioDevice(i1 noundef zeroext %0, ptr noundef %1, ptr noundef %2, ptr noundef %3) #0 {
  %5 = alloca i8, align 1
  %6 = alloca ptr, align 8
  %7 = alloca ptr, align 8
  %8 = alloca ptr, align 8
  %9 = alloca i32, align 4
  %10 = alloca i32, align 4
  %11 = alloca i32, align 4
  %12 = alloca %struct.SDL_AudioSpec, align 4
  %13 = alloca ptr, align 8
  %14 = alloca ptr, align 8
  %15 = zext i1 %0 to i8
  store i8 %15, ptr %5, align 1
  store ptr %1, ptr %6, align 8
  store ptr %2, ptr %7, align 8
  store ptr %3, ptr %8, align 8
  br label %16

16:                                               ; preds = %4
  br label %17

17:                                               ; preds = %16
  call void @llvm.lifetime.start.p0(i64 4, ptr %9) #6
  %18 = load i8, ptr %5, align 1, !range !5, !noundef !6
  %19 = trunc i8 %18 to i1
  %20 = select i1 %19, i32 32784, i32 32784
  store i32 %20, ptr %9, align 4
  call void @llvm.lifetime.start.p0(i64 4, ptr %10) #6
  %21 = load i8, ptr %5, align 1, !range !5, !noundef !6
  %22 = trunc i8 %21 to i1
  %23 = select i1 %22, i32 1, i32 2
  store i32 %23, ptr %10, align 4
  call void @llvm.lifetime.start.p0(i64 4, ptr %11) #6
  %24 = load i8, ptr %5, align 1, !range !5, !noundef !6
  %25 = trunc i8 %24 to i1
  %26 = select i1 %25, i32 44100, i32 44100
  store i32 %26, ptr %11, align 4
  call void @llvm.lifetime.start.p0(i64 12, ptr %12) #6
  call void @llvm.memset.p0.i64(ptr align 4 %12, i8 0, i64 12, i1 false)
  %27 = load ptr, ptr %7, align 8
  %28 = icmp ne ptr %27, null
  br i1 %28, label %36, label %29

29:                                               ; preds = %17
  %30 = load i32, ptr %9, align 4
  %31 = getelementptr inbounds nuw %struct.SDL_AudioSpec, ptr %12, i32 0, i32 0
  store i32 %30, ptr %31, align 4
  %32 = load i32, ptr %10, align 4
  %33 = getelementptr inbounds nuw %struct.SDL_AudioSpec, ptr %12, i32 0, i32 1
  store i32 %32, ptr %33, align 4
  %34 = load i32, ptr %11, align 4
  %35 = getelementptr inbounds nuw %struct.SDL_AudioSpec, ptr %12, i32 0, i32 2
  store i32 %34, ptr %35, align 4
  br label %76

36:                                               ; preds = %17
  %37 = load ptr, ptr %7, align 8
  %38 = getelementptr inbounds nuw %struct.SDL_AudioSpec, ptr %37, i32 0, i32 0
  %39 = load i32, ptr %38, align 4
  %40 = icmp ne i32 %39, 0
  br i1 %40, label %41, label %45

41:                                               ; preds = %36
  %42 = load ptr, ptr %7, align 8
  %43 = getelementptr inbounds nuw %struct.SDL_AudioSpec, ptr %42, i32 0, i32 0
  %44 = load i32, ptr %43, align 4
  br label %47

45:                                               ; preds = %36
  %46 = load i32, ptr %9, align 4
  br label %47

47:                                               ; preds = %45, %41
  %48 = phi i32 [ %44, %41 ], [ %46, %45 ]
  %49 = getelementptr inbounds nuw %struct.SDL_AudioSpec, ptr %12, i32 0, i32 0
  store i32 %48, ptr %49, align 4
  %50 = load ptr, ptr %7, align 8
  %51 = getelementptr inbounds nuw %struct.SDL_AudioSpec, ptr %50, i32 0, i32 1
  %52 = load i32, ptr %51, align 4
  %53 = icmp ne i32 %52, 0
  br i1 %53, label %54, label %58

54:                                               ; preds = %47
  %55 = load ptr, ptr %7, align 8
  %56 = getelementptr inbounds nuw %struct.SDL_AudioSpec, ptr %55, i32 0, i32 1
  %57 = load i32, ptr %56, align 4
  br label %60

58:                                               ; preds = %47
  %59 = load i32, ptr %10, align 4
  br label %60

60:                                               ; preds = %58, %54
  %61 = phi i32 [ %57, %54 ], [ %59, %58 ]
  %62 = getelementptr inbounds nuw %struct.SDL_AudioSpec, ptr %12, i32 0, i32 1
  store i32 %61, ptr %62, align 4
  %63 = load ptr, ptr %7, align 8
  %64 = getelementptr inbounds nuw %struct.SDL_AudioSpec, ptr %63, i32 0, i32 2
  %65 = load i32, ptr %64, align 4
  %66 = icmp ne i32 %65, 0
  br i1 %66, label %67, label %71

67:                                               ; preds = %60
  %68 = load ptr, ptr %7, align 8
  %69 = getelementptr inbounds nuw %struct.SDL_AudioSpec, ptr %68, i32 0, i32 2
  %70 = load i32, ptr %69, align 4
  br label %73

71:                                               ; preds = %60
  %72 = load i32, ptr %11, align 4
  br label %73

73:                                               ; preds = %71, %67
  %74 = phi i32 [ %70, %67 ], [ %72, %71 ]
  %75 = getelementptr inbounds nuw %struct.SDL_AudioSpec, ptr %12, i32 0, i32 2
  store i32 %74, ptr %75, align 4
  br label %76

76:                                               ; preds = %73, %29
  call void @llvm.lifetime.start.p0(i64 8, ptr %13) #6
  %77 = load i8, ptr %5, align 1, !range !5, !noundef !6
  %78 = trunc i8 %77 to i1
  br i1 %78, label %79, label %83

79:                                               ; preds = %76
  %80 = load ptr, ptr %6, align 8
  %81 = load ptr, ptr %8, align 8
  %82 = call ptr @CreateAudioRecordingDevice(ptr noundef %80, ptr noundef %12, ptr noundef %81)
  br label %87

83:                                               ; preds = %76
  %84 = load ptr, ptr %6, align 8
  %85 = load ptr, ptr %8, align 8
  %86 = call ptr @CreateAudioPlaybackDevice(ptr noundef %84, ptr noundef %12, ptr noundef %85)
  br label %87

87:                                               ; preds = %83, %79
  %88 = phi ptr [ %82, %79 ], [ %86, %83 ]
  store ptr %88, ptr %13, align 8
  %89 = load ptr, ptr %13, align 8
  %90 = icmp ne ptr %89, null
  br i1 %90, label %91, label %118

91:                                               ; preds = %87
  call void @llvm.lifetime.start.p0(i64 8, ptr %14) #6
  %92 = call noalias ptr @SDL_malloc_REAL(i64 noundef 16)
  store ptr %92, ptr %14, align 8
  %93 = load ptr, ptr %14, align 8
  %94 = icmp ne ptr %93, null
  br i1 %94, label %95, label %117

95:                                               ; preds = %91
  %96 = load ptr, ptr %14, align 8
  %97 = getelementptr inbounds nuw %struct.SDL_PendingAudioDeviceEvent, ptr %96, i32 0, i32 0
  store i32 4352, ptr %97, align 8
  %98 = load ptr, ptr %13, align 8
  %99 = getelementptr inbounds nuw %struct.SDL_AudioDevice, ptr %98, i32 0, i32 10
  %100 = load i32, ptr %99, align 8
  %101 = load ptr, ptr %14, align 8
  %102 = getelementptr inbounds nuw %struct.SDL_PendingAudioDeviceEvent, ptr %101, i32 0, i32 1
  store i32 %100, ptr %102, align 4
  %103 = load ptr, ptr %14, align 8
  %104 = getelementptr inbounds nuw %struct.SDL_PendingAudioDeviceEvent, ptr %103, i32 0, i32 2
  store ptr null, ptr %104, align 8
  %105 = load ptr, ptr getelementptr inbounds nuw (%struct.SDL_AudioDriver, ptr @current_audio, i32 0, i32 3), align 8
  call void @SDL_LockRWLockForWriting_REAL(ptr noundef %105)
  br label %106

106:                                              ; preds = %95
  br label %107

107:                                              ; preds = %106
  br label %108

108:                                              ; preds = %107
  br label %109

109:                                              ; preds = %108
  br label %110

110:                                              ; preds = %109
  br label %111

111:                                              ; preds = %110
  %112 = load ptr, ptr %14, align 8
  %113 = load ptr, ptr getelementptr inbounds nuw (%struct.SDL_AudioDriver, ptr @current_audio, i32 0, i32 9), align 8
  %114 = getelementptr inbounds nuw %struct.SDL_PendingAudioDeviceEvent, ptr %113, i32 0, i32 2
  store ptr %112, ptr %114, align 8
  %115 = load ptr, ptr %14, align 8
  store ptr %115, ptr getelementptr inbounds nuw (%struct.SDL_AudioDriver, ptr @current_audio, i32 0, i32 9), align 8
  %116 = load ptr, ptr getelementptr inbounds nuw (%struct.SDL_AudioDriver, ptr @current_audio, i32 0, i32 3), align 8
  call void @SDL_UnlockRWLock_REAL(ptr noundef %116)
  br label %117

117:                                              ; preds = %111, %91
  call void @llvm.lifetime.end.p0(i64 8, ptr %14) #6
  br label %118

118:                                              ; preds = %117, %87
  %119 = load ptr, ptr %13, align 8
  call void @llvm.lifetime.end.p0(i64 8, ptr %13) #6
  call void @llvm.lifetime.end.p0(i64 12, ptr %12) #6
  call void @llvm.lifetime.end.p0(i64 4, ptr %11) #6
  call void @llvm.lifetime.end.p0(i64 4, ptr %10) #6
  call void @llvm.lifetime.end.p0(i64 4, ptr %9) #6
  ret ptr %119
}