; Function Attrs: nounwind uwtable
define hidden noundef ptr @SDL_AddAudioDevice(i1 noundef zeroext %0, ptr noundef %1, ptr noundef readonly captures(address_is_null) %2, ptr noundef %3) local_unnamed_addr #0 {
  %5 = alloca %struct.SDL_AudioSpec, align 4
  %6 = select i1 %0, i32 1, i32 2
  call void @llvm.lifetime.start.p0(i64 12, ptr nonnull %5) #14
  %.not = icmp eq ptr %2, null
  br i1 %.not, label %15, label %7

7:                                                ; preds = %4
  %8 = load i32, ptr %2, align 4
  %.not34 = icmp eq i32 %8, 0
  %. = select i1 %.not34, i32 32784, i32 %8
  %9 = getelementptr inbounds nuw i8, ptr %2, i64 4
  %10 = load i32, ptr %9, align 4
  %.not35 = icmp eq i32 %10, 0
  %11 = select i1 %.not35, i32 %6, i32 %10
  %12 = getelementptr inbounds nuw i8, ptr %2, i64 8
  %13 = load i32, ptr %12, align 4
  %.not36 = icmp eq i32 %13, 0
  %14 = select i1 %.not36, i32 44100, i32 %13
  br label %15

15:                                               ; preds = %4, %7
  %..sink = phi i32 [ %., %7 ], [ 32784, %4 ]
  %.sink39 = phi i32 [ %11, %7 ], [ %6, %4 ]
  %.sink = phi i32 [ %14, %7 ], [ 44100, %4 ]
  store i32 %..sink, ptr %5, align 4
  %16 = getelementptr inbounds nuw i8, ptr %5, i64 4
  store i32 %.sink39, ptr %16, align 4
  %17 = getelementptr inbounds nuw i8, ptr %5, i64 8
  store i32 %.sink, ptr %17, align 4
  br i1 %0, label %18, label %20

18:                                               ; preds = %15
  %19 = call fastcc noundef ptr @CreatePhysicalAudioDevice(ptr noundef %1, i1 noundef zeroext true, ptr noundef nonnull readonly %5, ptr noundef %3, ptr noundef nonnull getelementptr inbounds nuw (i8, ptr @current_audio, i64 196))
  br label %22

20:                                               ; preds = %15
  %21 = call fastcc noundef ptr @CreatePhysicalAudioDevice(ptr noundef %1, i1 noundef zeroext false, ptr noundef nonnull readonly %5, ptr noundef %3, ptr noundef nonnull getelementptr inbounds nuw (i8, ptr @current_audio, i64 192))
  br label %22

22:                                               ; preds = %20, %18
  %23 = phi ptr [ %19, %18 ], [ %21, %20 ]
  %.not37 = icmp eq ptr %23, null
  br i1 %.not37, label %35, label %24

24:                                               ; preds = %22
  %25 = tail call noalias ptr @SDL_malloc_REAL(i64 noundef 16) #14
  %.not38 = icmp eq ptr %25, null
  br i1 %.not38, label %35, label %26

26:                                               ; preds = %24
  store i32 4352, ptr %25, align 8
  %27 = getelementptr inbounds nuw i8, ptr %23, i64 80
  %28 = load i32, ptr %27, align 8
  %29 = getelementptr inbounds nuw i8, ptr %25, i64 4
  store i32 %28, ptr %29, align 4
  %30 = getelementptr inbounds nuw i8, ptr %25, i64 8
  store ptr null, ptr %30, align 8
  %31 = load ptr, ptr getelementptr inbounds nuw (i8, ptr @current_audio, i64 136), align 8
  tail call void @SDL_LockRWLockForWriting_REAL(ptr noundef %31) #14
  %32 = load ptr, ptr getelementptr inbounds nuw (i8, ptr @current_audio, i64 184), align 8
  %33 = getelementptr inbounds nuw i8, ptr %32, i64 8
  store ptr %25, ptr %33, align 8
  store ptr %25, ptr getelementptr inbounds nuw (i8, ptr @current_audio, i64 184), align 8
  %34 = load ptr, ptr getelementptr inbounds nuw (i8, ptr @current_audio, i64 136), align 8
  tail call void @SDL_UnlockRWLock_REAL(ptr noundef %34) #14
  br label %35

35:                                               ; preds = %24, %26, %22
  call void @llvm.lifetime.end.p0(i64 12, ptr nonnull %5) #14
  ret ptr %23
}